target datalayout = "e-m:e-p270:32:32-p271:32:32-p272:64:64-i64:64-i128:128-f80:128-n8:16:32:64-S128"
target triple = "x86_64-pc-linux-gnu"

@stderr = external global ptr, align 8
@.str.13 = private unnamed_addr constant [21 x i8] c"[tiff_open] %s: %s: \00", align 1
@.str.14 = private unnamed_addr constant [2 x i8] c"\0A\00", align 1

; Function Attrs: nounwind uwtable
define internal void @_warning_error_handler(ptr noundef %0, ptr noundef %1, ptr noundef %2, ptr noundef %3) #0 {
  %5 = alloca ptr, align 8
  %6 = alloca ptr, align 8
  %7 = alloca ptr, align 8
  %8 = alloca ptr, align 8
  store ptr %0, ptr %5, align 8, !tbaa !11
  store ptr %1, ptr %6, align 8, !tbaa !11
  store ptr %2, ptr %7, align 8, !tbaa !11
  store ptr %3, ptr %8, align 8, !tbaa !88
  %9 = load ptr, ptr @stderr, align 8, !tbaa !102
  %10 = load ptr, ptr %5, align 8, !tbaa !11
  %11 = load ptr, ptr %6, align 8, !tbaa !11
  %12 = call i32 (ptr, ptr, ...) @fprintf(ptr noundef %9, ptr noundef @.str.13, ptr noundef %10, ptr noundef %11) #8
  %13 = load ptr, ptr @stderr, align 8, !tbaa !102
  %14 = load ptr, ptr %7, align 8, !tbaa !11
  %15 = load ptr, ptr %8, align 8, !tbaa !88
  %16 = call i32 @vfprintf(ptr noundef %13, ptr noundef %14, ptr noundef %15) #8
  %17 = load ptr, ptr @stderr, align 8, !tbaa !102
  %18 = call i32 (ptr, ptr, ...) @fprintf(ptr noundef %17, ptr noundef @.str.14) #8
  ret void
}