; Function Attrs: cold nofree nounwind uwtable
define internal fastcc void @_warning_error_handler(ptr noundef %0, ptr noundef %1, ptr noundef readonly captures(none) %2, ptr noundef %3) unnamed_addr #3 {
  %5 = load ptr, ptr @stderr, align 8, !tbaa !88
  %6 = tail call i32 (ptr, ptr, ...) @fprintf(ptr noundef %5, ptr noundef nonnull @.str.13, ptr noundef %0, ptr noundef %1) #14
  %7 = load ptr, ptr @stderr, align 8, !tbaa !88
  %8 = tail call i32 @vfprintf(ptr noundef %7, ptr noundef %2, ptr noundef %3) #14
  %9 = load ptr, ptr @stderr, align 8, !tbaa !88
  %fputc = tail call i32 @fputc(i32 10, ptr %9)
  ret void
}